target datalayout = "e-m:e-p270:32:32-p271:32:32-p272:64:64-i64:64-i128:128-f80:128-n8:16:32:64-S128"
target triple = "x86_64-pc-linux-gnu"

@proto_register_moldudp64.ett = internal global [2 x ptr] [ptr @ett_moldudp64, ptr @ett_moldudp64_msgblk], align 16
@.str.28 = private unnamed_addr constant [10 x i8] c"MoldUDP64\00", align 1
@.str.29 = private unnamed_addr constant [10 x i8] c"moldudp64\00", align 1
@proto_moldudp64 = internal global i32 0, align 4
@.str.30 = private unnamed_addr constant [18 x i8] c"moldudp64.payload\00", align 1
@.str.31 = private unnamed_addr constant [18 x i8] c"MoldUDP64 Payload\00", align 1
@moldudp64_payload_table = internal global ptr null, align 8
@moldudp64_handle = internal global ptr null, align 8

; Function Attrs: null_pointer_is_valid sspstrong uwtable
define hidden void @proto_register_moldudp64() #0 {
  %1 = alloca ptr, align 8
  call void @llvm.lifetime.start.p0(i64 8, ptr %1) #5
  %2 = call i32 @proto_register_protocol(ptr noundef @.str.28, ptr noundef @.str.28, ptr noundef @.str.29)
  store i32 %2, ptr @proto_moldudp64, align 4
  %3 = load i32, ptr @proto_moldudp64, align 4
  call void @proto_register_field_array(i32 noundef %3, ptr noundef @proto_register_moldudp64.hf, i32 noundef 7)
  call void @proto_register_subtree_array(ptr noundef @proto_register_moldudp64.ett, i32 noundef 2)
  %4 = load i32, ptr @proto_moldudp64, align 4
  %5 = call ptr @expert_register_protocol(i32 noundef %4)
  store ptr %5, ptr %1, align 8
  %6 = load ptr, ptr %1, align 8
  call void @expert_register_field_array(ptr noundef %6, ptr noundef @proto_register_moldudp64.ei, i32 noundef 4)
  %7 = load i32, ptr @proto_moldudp64, align 4
  %8 = call ptr @register_decode_as_next_proto(i32 noundef %7, ptr noundef @.str.30, ptr noundef @.str.31, ptr noundef @moldudp64_prompt)
  store ptr %8, ptr @moldudp64_payload_table, align 8
  %9 = load i32, ptr @proto_moldudp64, align 4
  %10 = call ptr @register_dissector(ptr noundef @.str.29, ptr noundef @dissect_moldudp64, i32 noundef %9)
  store ptr %10, ptr @moldudp64_handle, align 8
  call void @llvm.lifetime.end.p0(i64 8, ptr %1) #5
  ret void
}