; Function Attrs: null_pointer_is_valid sspstrong uwtable
define hidden void @proto_register_moldudp64() local_unnamed_addr #0 {
  %1 = tail call i32 @proto_register_protocol(ptr noundef nonnull @.str.28, ptr noundef nonnull @.str.28, ptr noundef nonnull @.str.29)
  store i32 %1, ptr @proto_moldudp64, align 4
  tail call void @proto_register_field_array(i32 noundef %1, ptr noundef nonnull @proto_register_moldudp64.hf, i32 noundef 7)
  tail call void @proto_register_subtree_array(ptr noundef nonnull @proto_register_moldudp64.ett, i32 noundef 2)
  %2 = load i32, ptr @proto_moldudp64, align 4
  %3 = tail call ptr @expert_register_protocol(i32 noundef %2)
  tail call void @expert_register_field_array(ptr noundef %3, ptr noundef nonnull @proto_register_moldudp64.ei, i32 noundef 4)
  %4 = load i32, ptr @proto_moldudp64, align 4
  %5 = tail call ptr @register_decode_as_next_proto(i32 noundef %4, ptr noundef nonnull @.str.30, ptr noundef nonnull @.str.31, ptr noundef nonnull @moldudp64_prompt)
  store ptr %5, ptr @moldudp64_payload_table, align 8
  %6 = load i32, ptr @proto_moldudp64, align 4
  %7 = tail call ptr @register_dissector(ptr noundef nonnull @.str.29, ptr noundef nonnull @dissect_moldudp64, i32 noundef %6)
  store ptr %7, ptr @moldudp64_handle, align 8
  ret void
}